; ModuleID = 'bench/folly/original/DelayedDestruction.ll'
source_filename = "bench/folly/original/DelayedDestruction.ll"
target datalayout = "e-m:e-p270:32:32-p271:32:32-p272:64:64-i64:64-i128:128-f80:128-n8:16:32:64-S128"
target triple = "x86_64-pc-linux-gnu"

$_ZN5folly18DelayedDestruction16onDelayedDestroyEb = comdat any

$_ZN5folly18DelayedDestruction7destroyEv = comdat any

$_ZTIN5folly22DelayedDestructionBaseE = comdat any

$_ZTSN5folly22DelayedDestructionBaseE = comdat any

@_ZTVN5folly18DelayedDestructionE = unnamed_addr constant { [6 x ptr] } { [6 x ptr] [ptr null, ptr @_ZTIN5folly18DelayedDestructionE, ptr @_ZN5folly18DelayedDestructionD1Ev, ptr @_ZN5folly18DelayedDestructionD0Ev, ptr @_ZN5folly18DelayedDestruction16onDelayedDestroyEb, ptr @_ZN5folly18DelayedDestruction7destroyEv] }, align 8
@_ZTIN5folly18DelayedDestructionE = constant { ptr, ptr, ptr } { ptr getelementptr inbounds (ptr, ptr @_ZTVN10__cxxabiv120__si_class_type_infoE, i64 2), ptr @_ZTSN5folly18DelayedDestructionE, ptr @_ZTIN5folly22DelayedDestructionBaseE }, align 8
@_ZTVN10__cxxabiv120__si_class_type_infoE = external global [0 x ptr]
@_ZTSN5folly18DelayedDestructionE = constant [29 x i8] c"N5folly18DelayedDestructionE\00", align 1
@_ZTIN5folly22DelayedDestructionBaseE = linkonce_odr constant { ptr, ptr } { ptr getelementptr inbounds (ptr, ptr @_ZTVN10__cxxabiv117__class_type_infoE, i64 2), ptr @_ZTSN5folly22DelayedDestructionBaseE }, comdat, align 8
@_ZTVN10__cxxabiv117__class_type_infoE = external global [0 x ptr]
@_ZTSN5folly22DelayedDestructionBaseE = linkonce_odr constant [33 x i8] c"N5folly22DelayedDestructionBaseE\00", comdat, align 1

@_ZN5folly18DelayedDestructionD1Ev = unnamed_addr alias void (ptr), ptr @_ZN5folly18DelayedDestructionD2Ev

; Function Attrs: mustprogress nounwind uwtable
define void @_ZN5folly18DelayedDestructionD0Ev(ptr noundef nonnull align 8 dereferenceable(13) %0) unnamed_addr #0 align 2 {
  tail call void @_ZN5folly18DelayedDestructionD1Ev(ptr noundef nonnull align 8 dereferenceable(13) %0) #4
  tail call void @_ZdlPvm(ptr noundef nonnull %0, i64 noundef 16) #5
  ret void
}

; Function Attrs: mustprogress nounwind uwtable
define linkonce_odr void @_ZN5folly18DelayedDestruction16onDelayedDestroyEb(ptr noundef nonnull align 8 dereferenceable(13) %0, i1 noundef zeroext %1) unnamed_addr #0 comdat align 2 {
  br i1 %1, label %3, label %7

3:                                                ; preds = %2
  %4 = getelementptr inbounds nuw i8, ptr %0, i64 12
  %5 = load i8, ptr %4, align 4, !tbaa !7, !range !14, !noundef !15
  %6 = trunc nuw i8 %5 to i1
  br i1 %6, label %7, label %12

7:                                                ; preds = %3, %2
  %8 = getelementptr inbounds nuw i8, ptr %0, i64 12
  store i8 0, ptr %8, align 4, !tbaa !7
  %9 = load ptr, ptr %0, align 8, !tbaa !16
  %10 = getelementptr inbounds nuw i8, ptr %9, i64 8
  %11 = load ptr, ptr %10, align 8
  tail call void %11(ptr noundef nonnull align 8 dereferenceable(13) %0) #4
  br label %12

12:                                               ; preds = %3, %7
  ret void
}

; Function Attrs: mustprogress uwtable
define linkonce_odr void @_ZN5folly18DelayedDestruction7destroyEv(ptr noundef nonnull align 8 dereferenceable(13) %0) unnamed_addr #1 comdat align 2 {
  %2 = getelementptr inbounds nuw i8, ptr %0, i64 8
  %3 = load i32, ptr %2, align 8, !tbaa !18
  %.not = icmp eq i32 %3, 0
  br i1 %.not, label %6, label %4

4:                                                ; preds = %1
  %5 = getelementptr inbounds nuw i8, ptr %0, i64 12
  store i8 1, ptr %5, align 4, !tbaa !7
  br label %10

6:                                                ; preds = %1
  %7 = load ptr, ptr %0, align 8, !tbaa !16
  %8 = getelementptr inbounds nuw i8, ptr %7, i64 16
  %9 = load ptr, ptr %8, align 8
  tail call void %9(ptr noundef nonnull align 8 dereferenceable(13) %0, i1 noundef zeroext false)
  br label %10

10:                                               ; preds = %6, %4
  ret void
}

; Function Attrs: mustprogress nofree norecurse nosync nounwind willreturn memory(none) uwtable
define void @_ZN5folly18DelayedDestructionD2Ev(ptr nonnull readnone align 8 captures(none) %0) unnamed_addr #2 align 2 {
  ret void
}

; Function Attrs: nobuiltin nounwind
declare void @_ZdlPvm(ptr noundef, i64 noundef) local_unnamed_addr #3


!llvm.module.flags = !{!0, !1, !2, !3, !4, !5, !6}

!0 = !{i32 7, !"Dwarf Version", i32 5}
!1 = !{i32 2, !"Debug Info Version", i32 3}
!2 = !{i32 1, !"wchar_size", i32 4}
!3 = !{i32 7, !"openmp", i32 51}
!4 = !{i32 8, !"PIC Level", i32 2}
!5 = !{i32 7, !"uwtable", i32 2}
!6 = !{i32 7, !"debug-info-assignment-tracking", i1 true}
!7 = !{!8, !13, i64 12}
!8 = !{!"_ZTSN5folly18DelayedDestructionE", !9, i64 0, !13, i64 12}
!9 = !{!"_ZTSN5folly22DelayedDestructionBaseE", !10, i64 8}
!10 = !{!"int", !11, i64 0}
!11 = !{!"omnipotent char", !12, i64 0}
!12 = !{!"Simple C++ TBAA"}
!13 = !{!"bool", !11, i64 0}
!14 = !{i8 0, i8 2}
!15 = !{}
!16 = !{!17, !17, i64 0}
!17 = !{!"vtable pointer", !12, i64 0}
!18 = !{!9, !10, i64 8}
